target datalayout = "e-m:e-p270:32:32-p271:32:32-p272:64:64-i64:64-i128:128-f80:128-n8:16:32:64-S128"
target triple = "x86_64-pc-linux-gnu"

; Function Attrs: mustprogress nounwind uwtable
define internal void @_ZN5boost8charconv6detail3ryuL17mul_128_256_shiftEPKmS4_jjPm(ptr noundef %0, ptr noundef %1, i32 noundef %2, i32 noundef %3, ptr noundef %4) #0 {
  %6 = alloca ptr, align 8
  %7 = alloca ptr, align 8
  %8 = alloca i32, align 4
  %9 = alloca i32, align 4
  %10 = alloca ptr, align 8
  %11 = alloca i128, align 16
  %12 = alloca i128, align 16
  %13 = alloca i128, align 16
  %14 = alloca i128, align 16
  %15 = alloca i128, align 16
  %16 = alloca i128, align 16
  %17 = alloca i128, align 16
  %18 = alloca i128, align 16
  %19 = alloca i128, align 16
  %20 = alloca i128, align 16
  %21 = alloca i128, align 16
  %22 = alloca i128, align 16
  %23 = alloca i128, align 16
  %24 = alloca i128, align 16
  %25 = alloca i128, align 16
  %26 = alloca i128, align 16
  %27 = alloca i128, align 16
  %28 = alloca i128, align 16
  %29 = alloca i128, align 16
  %30 = alloca i128, align 16
  %31 = alloca i128, align 16
  %32 = alloca i128, align 16
  %33 = alloca i128, align 16
  %34 = alloca i128, align 16
  %35 = alloca i128, align 16
  %36 = alloca i128, align 16
  %37 = alloca i128, align 16
  %38 = alloca i128, align 16
  store ptr %0, ptr %6, align 8, !tbaa !3
  store ptr %1, ptr %7, align 8, !tbaa !3
  store i32 %2, ptr %8, align 4, !tbaa !11
  store i32 %3, ptr %9, align 4, !tbaa !11
  store ptr %4, ptr %10, align 8, !tbaa !3
  call void @llvm.lifetime.start.p0(i64 16, ptr %11) #11
  %39 = load ptr, ptr %6, align 8, !tbaa !3
  %40 = getelementptr inbounds i64, ptr %39, i64 0
  %41 = load i64, ptr %40, align 8, !tbaa !22
  %42 = zext i64 %41 to i128
  %43 = load ptr, ptr %7, align 8, !tbaa !3
  %44 = getelementptr inbounds i64, ptr %43, i64 0
  %45 = load i64, ptr %44, align 8, !tbaa !22
  %46 = zext i64 %45 to i128
  %47 = mul i128 %42, %46
  store i128 %47, ptr %11, align 16, !tbaa !14
  call void @llvm.lifetime.start.p0(i64 16, ptr %12) #11
  %48 = load ptr, ptr %6, align 8, !tbaa !3
  %49 = getelementptr inbounds i64, ptr %48, i64 0
  %50 = load i64, ptr %49, align 8, !tbaa !22
  %51 = zext i64 %50 to i128
  %52 = load ptr, ptr %7, align 8, !tbaa !3
  %53 = getelementptr inbounds i64, ptr %52, i64 1
  %54 = load i64, ptr %53, align 8, !tbaa !22
  %55 = zext i64 %54 to i128
  %56 = mul i128 %51, %55
  store i128 %56, ptr %12, align 16, !tbaa !14
  call void @llvm.lifetime.start.p0(i64 16, ptr %13) #11
  %57 = load ptr, ptr %6, align 8, !tbaa !3
  %58 = getelementptr inbounds i64, ptr %57, i64 0
  %59 = load i64, ptr %58, align 8, !tbaa !22
  %60 = zext i64 %59 to i128
  %61 = load ptr, ptr %7, align 8, !tbaa !3
  %62 = getelementptr inbounds i64, ptr %61, i64 2
  %63 = load i64, ptr %62, align 8, !tbaa !22
  %64 = zext i64 %63 to i128
  %65 = mul i128 %60, %64
  store i128 %65, ptr %13, align 16, !tbaa !14
  call void @llvm.lifetime.start.p0(i64 16, ptr %14) #11
  %66 = load ptr, ptr %6, align 8, !tbaa !3
  %67 = getelementptr inbounds i64, ptr %66, i64 0
  %68 = load i64, ptr %67, align 8, !tbaa !22
  %69 = zext i64 %68 to i128
  %70 = load ptr, ptr %7, align 8, !tbaa !3
  %71 = getelementptr inbounds i64, ptr %70, i64 3
  %72 = load i64, ptr %71, align 8, !tbaa !22
  %73 = zext i64 %72 to i128
  %74 = mul i128 %69, %73
  store i128 %74, ptr %14, align 16, !tbaa !14
  call void @llvm.lifetime.start.p0(i64 16, ptr %15) #11
  %75 = load ptr, ptr %6, align 8, !tbaa !3
  %76 = getelementptr inbounds i64, ptr %75, i64 1
  %77 = load i64, ptr %76, align 8, !tbaa !22
  %78 = zext i64 %77 to i128
  %79 = load ptr, ptr %7, align 8, !tbaa !3
  %80 = getelementptr inbounds i64, ptr %79, i64 0
  %81 = load i64, ptr %80, align 8, !tbaa !22
  %82 = zext i64 %81 to i128
  %83 = mul i128 %78, %82
  store i128 %83, ptr %15, align 16, !tbaa !14
  call void @llvm.lifetime.start.p0(i64 16, ptr %16) #11
  %84 = load ptr, ptr %6, align 8, !tbaa !3
  %85 = getelementptr inbounds i64, ptr %84, i64 1
  %86 = load i64, ptr %85, align 8, !tbaa !22
  %87 = zext i64 %86 to i128
  %88 = load ptr, ptr %7, align 8, !tbaa !3
  %89 = getelementptr inbounds i64, ptr %88, i64 1
  %90 = load i64, ptr %89, align 8, !tbaa !22
  %91 = zext i64 %90 to i128
  %92 = mul i128 %87, %91
  store i128 %92, ptr %16, align 16, !tbaa !14
  call void @llvm.lifetime.start.p0(i64 16, ptr %17) #11
  %93 = load ptr, ptr %6, align 8, !tbaa !3
  %94 = getelementptr inbounds i64, ptr %93, i64 1
  %95 = load i64, ptr %94, align 8, !tbaa !22
  %96 = zext i64 %95 to i128
  %97 = load ptr, ptr %7, align 8, !tbaa !3
  %98 = getelementptr inbounds i64, ptr %97, i64 2
  %99 = load i64, ptr %98, align 8, !tbaa !22
  %100 = zext i64 %99 to i128
  %101 = mul i128 %96, %100
  store i128 %101, ptr %17, align 16, !tbaa !14
  call void @llvm.lifetime.start.p0(i64 16, ptr %18) #11
  %102 = load ptr, ptr %6, align 8, !tbaa !3
  %103 = getelementptr inbounds i64, ptr %102, i64 1
  %104 = load i64, ptr %103, align 8, !tbaa !22
  %105 = zext i64 %104 to i128
  %106 = load ptr, ptr %7, align 8, !tbaa !3
  %107 = getelementptr inbounds i64, ptr %106, i64 3
  %108 = load i64, ptr %107, align 8, !tbaa !22
  %109 = zext i64 %108 to i128
  %110 = mul i128 %105, %109
  store i128 %110, ptr %18, align 16, !tbaa !14
  call void @llvm.lifetime.start.p0(i64 16, ptr %19) #11
  %111 = load i128, ptr %11, align 16, !tbaa !14
  store i128 %111, ptr %19, align 16, !tbaa !14
  call void @llvm.lifetime.start.p0(i64 16, ptr %20) #11
  %112 = load i128, ptr %12, align 16, !tbaa !14
  %113 = load i128, ptr %15, align 16, !tbaa !14
  %114 = add i128 %112, %113
  store i128 %114, ptr %20, align 16, !tbaa !14
  call void @llvm.lifetime.start.p0(i64 16, ptr %21) #11
  %115 = load i128, ptr %20, align 16, !tbaa !14
  %116 = load i128, ptr %12, align 16, !tbaa !14
  %117 = icmp ult i128 %115, %116
  %118 = zext i1 %117 to i128
  store i128 %118, ptr %21, align 16, !tbaa !14
  call void @llvm.lifetime.start.p0(i64 16, ptr %22) #11
  %119 = load i128, ptr %13, align 16, !tbaa !14
  %120 = load i128, ptr %16, align 16, !tbaa !14
  %121 = add i128 %119, %120
  store i128 %121, ptr %22, align 16, !tbaa !14
  call void @llvm.lifetime.start.p0(i64 16, ptr %23) #11
  %122 = load i128, ptr %22, align 16, !tbaa !14
  %123 = load i128, ptr %13, align 16, !tbaa !14
  %124 = icmp ult i128 %122, %123
  %125 = zext i1 %124 to i128
  store i128 %125, ptr %23, align 16, !tbaa !14
  call void @llvm.lifetime.start.p0(i64 16, ptr %24) #11
  %126 = load i128, ptr %14, align 16, !tbaa !14
  %127 = load i128, ptr %17, align 16, !tbaa !14
  %128 = add i128 %126, %127
  store i128 %128, ptr %24, align 16, !tbaa !14
  call void @llvm.lifetime.start.p0(i64 16, ptr %25) #11
  %129 = load i128, ptr %24, align 16, !tbaa !14
  %130 = load i128, ptr %14, align 16, !tbaa !14
  %131 = icmp ult i128 %129, %130
  %132 = zext i1 %131 to i128
  store i128 %132, ptr %25, align 16, !tbaa !14
  call void @llvm.lifetime.start.p0(i64 16, ptr %26) #11
  %133 = load i128, ptr %19, align 16, !tbaa !14
  %134 = load i128, ptr %20, align 16, !tbaa !14
  %135 = shl i128 %134, 64
  %136 = add i128 %133, %135
  store i128 %136, ptr %26, align 16, !tbaa !14
  call void @llvm.lifetime.start.p0(i64 16, ptr %27) #11
  %137 = load i128, ptr %26, align 16, !tbaa !14
  %138 = load i128, ptr %11, align 16, !tbaa !14
  %139 = icmp ult i128 %137, %138
  %140 = zext i1 %139 to i128
  store i128 %140, ptr %27, align 16, !tbaa !14
  call void @llvm.lifetime.start.p0(i64 16, ptr %28) #11
  %141 = load i128, ptr %22, align 16, !tbaa !14
  %142 = load i128, ptr %20, align 16, !tbaa !14
  %143 = lshr i128 %142, 64
  %144 = add i128 %141, %143
  %145 = load i128, ptr %24, align 16, !tbaa !14
  %146 = shl i128 %145, 64
  %147 = add i128 %144, %146
  store i128 %147, ptr %28, align 16, !tbaa !14
  call void @llvm.lifetime.start.p0(i64 16, ptr %29) #11
  %148 = load i128, ptr %28, align 16, !tbaa !14
  %149 = load i128, ptr %22, align 16, !tbaa !14
  %150 = icmp ult i128 %148, %149
  %151 = zext i1 %150 to i128
  store i128 %151, ptr %29, align 16, !tbaa !14
  call void @llvm.lifetime.start.p0(i64 16, ptr %30) #11
  %152 = load i128, ptr %28, align 16, !tbaa !14
  %153 = load i128, ptr %21, align 16, !tbaa !14
  %154 = shl i128 %153, 64
  %155 = add i128 %152, %154
  %156 = load i128, ptr %27, align 16, !tbaa !14
  %157 = add i128 %155, %156
  store i128 %157, ptr %30, align 16, !tbaa !14
  call void @llvm.lifetime.start.p0(i64 16, ptr %31) #11
  %158 = load i128, ptr %30, align 16, !tbaa !14
  %159 = load i128, ptr %28, align 16, !tbaa !14
  %160 = icmp ult i128 %158, %159
  %161 = zext i1 %160 to i128
  store i128 %161, ptr %31, align 16, !tbaa !14
  call void @llvm.lifetime.start.p0(i64 16, ptr %32) #11
  %162 = load i128, ptr %18, align 16, !tbaa !14
  %163 = load i128, ptr %24, align 16, !tbaa !14
  %164 = lshr i128 %163, 64
  %165 = add i128 %162, %164
  %166 = load i128, ptr %23, align 16, !tbaa !14
  %167 = add i128 %165, %166
  %168 = load i128, ptr %25, align 16, !tbaa !14
  %169 = shl i128 %168, 64
  %170 = add i128 %167, %169
  %171 = load i128, ptr %29, align 16, !tbaa !14
  %172 = add i128 %170, %171
  %173 = load i128, ptr %31, align 16, !tbaa !14
  %174 = add i128 %172, %173
  store i128 %174, ptr %32, align 16, !tbaa !14
  %175 = load i32, ptr %8, align 4, !tbaa !11
  %176 = icmp ult i32 %175, 128
  br i1 %176, label %177, label %225

177:                                              ; preds = %5
  call void @llvm.lifetime.start.p0(i64 16, ptr %33) #11
  %178 = load i32, ptr %9, align 4, !tbaa !11
  %179 = zext i32 %178 to i128
  %180 = load i128, ptr %26, align 16, !tbaa !14
  %181 = load i32, ptr %8, align 4, !tbaa !11
  %182 = zext i32 %181 to i128
  %183 = lshr i128 %180, %182
  %184 = load i128, ptr %30, align 16, !tbaa !14
  %185 = load i32, ptr %8, align 4, !tbaa !11
  %186 = sub i32 128, %185
  %187 = zext i32 %186 to i128
  %188 = shl i128 %184, %187
  %189 = or i128 %183, %188
  %190 = add i128 %179, %189
  store i128 %190, ptr %33, align 16, !tbaa !14
  call void @llvm.lifetime.start.p0(i64 16, ptr %34) #11
  %191 = load i128, ptr %30, align 16, !tbaa !14
  %192 = load i32, ptr %8, align 4, !tbaa !11
  %193 = zext i32 %192 to i128
  %194 = lshr i128 %191, %193
  %195 = load i128, ptr %32, align 16, !tbaa !14
  %196 = load i32, ptr %8, align 4, !tbaa !11
  %197 = sub i32 128, %196
  %198 = zext i32 %197 to i128
  %199 = shl i128 %195, %198
  %200 = or i128 %194, %199
  %201 = load i128, ptr %33, align 16, !tbaa !14
  %202 = load i32, ptr %9, align 4, !tbaa !11
  %203 = zext i32 %202 to i128
  %204 = icmp ult i128 %201, %203
  %205 = zext i1 %204 to i128
  %206 = add i128 %200, %205
  store i128 %206, ptr %34, align 16, !tbaa !14
  %207 = load i128, ptr %33, align 16, !tbaa !14
  %208 = trunc i128 %207 to i64
  %209 = load ptr, ptr %10, align 8, !tbaa !3
  %210 = getelementptr inbounds i64, ptr %209, i64 0
  store i64 %208, ptr %210, align 8, !tbaa !22
  %211 = load i128, ptr %33, align 16, !tbaa !14
  %212 = lshr i128 %211, 64
  %213 = trunc i128 %212 to i64
  %214 = load ptr, ptr %10, align 8, !tbaa !3
  %215 = getelementptr inbounds i64, ptr %214, i64 1
  store i64 %213, ptr %215, align 8, !tbaa !22
  %216 = load i128, ptr %34, align 16, !tbaa !14
  %217 = trunc i128 %216 to i64
  %218 = load ptr, ptr %10, align 8, !tbaa !3
  %219 = getelementptr inbounds i64, ptr %218, i64 2
  store i64 %217, ptr %219, align 8, !tbaa !22
  %220 = load i128, ptr %34, align 16, !tbaa !14
  %221 = lshr i128 %220, 64
  %222 = trunc i128 %221 to i64
  %223 = load ptr, ptr %10, align 8, !tbaa !3
  %224 = getelementptr inbounds i64, ptr %223, i64 3
  store i64 %222, ptr %224, align 8, !tbaa !22
  call void @llvm.lifetime.end.p0(i64 16, ptr %34) #11
  call void @llvm.lifetime.end.p0(i64 16, ptr %33) #11
  br label %303

225:                                              ; preds = %5
  %226 = load i32, ptr %8, align 4, !tbaa !11
  %227 = icmp eq i32 %226, 128
  br i1 %227, label %228, label %258

228:                                              ; preds = %225
  call void @llvm.lifetime.start.p0(i64 16, ptr %35) #11
  %229 = load i32, ptr %9, align 4, !tbaa !11
  %230 = zext i32 %229 to i128
  %231 = load i128, ptr %30, align 16, !tbaa !14
  %232 = add i128 %230, %231
  store i128 %232, ptr %35, align 16, !tbaa !14
  call void @llvm.lifetime.start.p0(i64 16, ptr %36) #11
  %233 = load i128, ptr %32, align 16, !tbaa !14
  %234 = load i128, ptr %35, align 16, !tbaa !14
  %235 = load i32, ptr %9, align 4, !tbaa !11
  %236 = zext i32 %235 to i128
  %237 = icmp ult i128 %234, %236
  %238 = zext i1 %237 to i128
  %239 = add i128 %233, %238
  store i128 %239, ptr %36, align 16, !tbaa !14
  %240 = load i128, ptr %35, align 16, !tbaa !14
  %241 = trunc i128 %240 to i64
  %242 = load ptr, ptr %10, align 8, !tbaa !3
  %243 = getelementptr inbounds i64, ptr %242, i64 0
  store i64 %241, ptr %243, align 8, !tbaa !22
  %244 = load i128, ptr %35, align 16, !tbaa !14
  %245 = lshr i128 %244, 64
  %246 = trunc i128 %245 to i64
  %247 = load ptr, ptr %10, align 8, !tbaa !3
  %248 = getelementptr inbounds i64, ptr %247, i64 1
  store i64 %246, ptr %248, align 8, !tbaa !22
  %249 = load i128, ptr %36, align 16, !tbaa !14
  %250 = trunc i128 %249 to i64
  %251 = load ptr, ptr %10, align 8, !tbaa !3
  %252 = getelementptr inbounds i64, ptr %251, i64 2
  store i64 %250, ptr %252, align 8, !tbaa !22
  %253 = load i128, ptr %36, align 16, !tbaa !14
  %254 = lshr i128 %253, 64
  %255 = trunc i128 %254 to i64
  %256 = load ptr, ptr %10, align 8, !tbaa !3
  %257 = getelementptr inbounds i64, ptr %256, i64 3
  store i64 %255, ptr %257, align 8, !tbaa !22
  call void @llvm.lifetime.end.p0(i64 16, ptr %36) #11
  call void @llvm.lifetime.end.p0(i64 16, ptr %35) #11
  br label %302

258:                                              ; preds = %225
  call void @llvm.lifetime.start.p0(i64 16, ptr %37) #11
  %259 = load i32, ptr %9, align 4, !tbaa !11
  %260 = zext i32 %259 to i128
  %261 = load i128, ptr %30, align 16, !tbaa !14
  %262 = load i32, ptr %8, align 4, !tbaa !11
  %263 = sub i32 %262, 128
  %264 = zext i32 %263 to i128
  %265 = lshr i128 %261, %264
  %266 = load i128, ptr %32, align 16, !tbaa !14
  %267 = load i32, ptr %8, align 4, !tbaa !11
  %268 = sub i32 256, %267
  %269 = zext i32 %268 to i128
  %270 = shl i128 %266, %269
  %271 = or i128 %265, %270
  %272 = add i128 %260, %271
  store i128 %272, ptr %37, align 16, !tbaa !14
  call void @llvm.lifetime.start.p0(i64 16, ptr %38) #11
  %273 = load i128, ptr %32, align 16, !tbaa !14
  %274 = load i32, ptr %8, align 4, !tbaa !11
  %275 = sub i32 %274, 128
  %276 = zext i32 %275 to i128
  %277 = lshr i128 %273, %276
  %278 = load i128, ptr %37, align 16, !tbaa !14
  %279 = load i32, ptr %9, align 4, !tbaa !11
  %280 = zext i32 %279 to i128
  %281 = icmp ult i128 %278, %280
  %282 = zext i1 %281 to i128
  %283 = add i128 %277, %282
  store i128 %283, ptr %38, align 16, !tbaa !14
  %284 = load i128, ptr %37, align 16, !tbaa !14
  %285 = trunc i128 %284 to i64
  %286 = load ptr, ptr %10, align 8, !tbaa !3
  %287 = getelementptr inbounds i64, ptr %286, i64 0
  store i64 %285, ptr %287, align 8, !tbaa !22
  %288 = load i128, ptr %37, align 16, !tbaa !14
  %289 = lshr i128 %288, 64
  %290 = trunc i128 %289 to i64
  %291 = load ptr, ptr %10, align 8, !tbaa !3
  %292 = getelementptr inbounds i64, ptr %291, i64 1
  store i64 %290, ptr %292, align 8, !tbaa !22
  %293 = load i128, ptr %38, align 16, !tbaa !14
  %294 = trunc i128 %293 to i64
  %295 = load ptr, ptr %10, align 8, !tbaa !3
  %296 = getelementptr inbounds i64, ptr %295, i64 2
  store i64 %294, ptr %296, align 8, !tbaa !22
  %297 = load i128, ptr %38, align 16, !tbaa !14
  %298 = lshr i128 %297, 64
  %299 = trunc i128 %298 to i64
  %300 = load ptr, ptr %10, align 8, !tbaa !3
  %301 = getelementptr inbounds i64, ptr %300, i64 3
  store i64 %299, ptr %301, align 8, !tbaa !22
  call void @llvm.lifetime.end.p0(i64 16, ptr %38) #11
  call void @llvm.lifetime.end.p0(i64 16, ptr %37) #11
  br label %302

302:                                              ; preds = %258, %228
  br label %303

303:                                              ; preds = %302, %177
  call void @llvm.lifetime.end.p0(i64 16, ptr %32) #11
  call void @llvm.lifetime.end.p0(i64 16, ptr %31) #11
  call void @llvm.lifetime.end.p0(i64 16, ptr %30) #11
  call void @llvm.lifetime.end.p0(i64 16, ptr %29) #11
  call void @llvm.lifetime.end.p0(i64 16, ptr %28) #11
  call void @llvm.lifetime.end.p0(i64 16, ptr %27) #11
  call void @llvm.lifetime.end.p0(i64 16, ptr %26) #11
  call void @llvm.lifetime.end.p0(i64 16, ptr %25) #11
  call void @llvm.lifetime.end.p0(i64 16, ptr %24) #11
  call void @llvm.lifetime.end.p0(i64 16, ptr %23) #11
  call void @llvm.lifetime.end.p0(i64 16, ptr %22) #11
  call void @llvm.lifetime.end.p0(i64 16, ptr %21) #11
  call void @llvm.lifetime.end.p0(i64 16, ptr %20) #11
  call void @llvm.lifetime.end.p0(i64 16, ptr %19) #11
  call void @llvm.lifetime.end.p0(i64 16, ptr %18) #11
  call void @llvm.lifetime.end.p0(i64 16, ptr %17) #11
  call void @llvm.lifetime.end.p0(i64 16, ptr %16) #11
  call void @llvm.lifetime.end.p0(i64 16, ptr %15) #11
  call void @llvm.lifetime.end.p0(i64 16, ptr %14) #11
  call void @llvm.lifetime.end.p0(i64 16, ptr %13) #11
  call void @llvm.lifetime.end.p0(i64 16, ptr %12) #11
  call void @llvm.lifetime.end.p0(i64 16, ptr %11) #11
  ret void
}