; Function Attrs: mustprogress nofree norecurse nosync nounwind willreturn memory(argmem: readwrite) uwtable
define internal fastcc void @_ZN5boost8charconv6detail3ryuL17mul_128_256_shiftEPKmS4_jjPm(i64 %.0.val, i64 %.8.val, ptr nocapture noundef readonly %0, i32 noundef range(i32 -262143, 267305) %1, i32 noundef range(i32 0, 5) %2, ptr nocapture noundef nonnull writeonly %3) unnamed_addr #8 {
  %5 = zext i64 %.0.val to i128
  %6 = load i64, ptr %0, align 8, !tbaa !14
  %7 = zext i64 %6 to i128
  %8 = mul nuw i128 %7, %5
  %9 = getelementptr inbounds i8, ptr %0, i64 8
  %10 = load i64, ptr %9, align 8, !tbaa !14
  %11 = zext i64 %10 to i128
  %12 = mul nuw i128 %11, %5
  %13 = getelementptr inbounds i8, ptr %0, i64 16
  %14 = load i64, ptr %13, align 8, !tbaa !14
  %15 = zext i64 %14 to i128
  %16 = mul nuw i128 %15, %5
  %17 = getelementptr inbounds i8, ptr %0, i64 24
  %18 = load i64, ptr %17, align 8, !tbaa !14
  %19 = zext i64 %18 to i128
  %20 = mul nuw i128 %19, %5
  %21 = zext i64 %.8.val to i128
  %22 = mul nuw i128 %7, %21
  %23 = mul nuw i128 %11, %21
  %24 = mul nuw i128 %15, %21
  %25 = mul nuw i128 %19, %21
  %26 = add i128 %12, %22
  %27 = icmp ult i128 %26, %12
  %28 = add i128 %16, %23
  %29 = icmp ult i128 %28, %16
  %30 = zext i1 %29 to i128
  %31 = add i128 %20, %24
  %32 = icmp ult i128 %31, %20
  %33 = shl i128 %26, 64
  %34 = add i128 %33, %8
  %35 = icmp ult i128 %34, %8
  %36 = zext i1 %35 to i128
  %37 = lshr i128 %26, 64
  %38 = add i128 %28, %37
  %39 = shl i128 %31, 64
  %40 = add i128 %38, %39
  %41 = icmp ult i128 %40, %28
  %42 = zext i1 %41 to i128
  %43 = select i1 %27, i128 18446744073709551616, i128 0
  %44 = add i128 %40, %43
  %45 = add i128 %44, %36
  %46 = icmp ult i128 %45, %40
  %47 = zext i1 %46 to i128
  %48 = lshr i128 %31, 64
  %49 = add nuw i128 %48, %25
  %50 = add nuw i128 %49, %30
  %51 = select i1 %32, i128 18446744073709551616, i128 0
  %52 = add i128 %50, %51
  %53 = add i128 %52, %42
  %54 = add i128 %53, %47
  %55 = icmp ult i32 %1, 128
  br i1 %55, label %56, label %69

56:                                               ; preds = %4
  %57 = zext nneg i32 %2 to i128
  %58 = zext nneg i32 %1 to i128
  %59 = lshr i128 %34, %58
  %60 = sub nuw nsw i32 128, %1
  %61 = zext nneg i32 %60 to i128
  %62 = shl i128 %45, %61
  %63 = or i128 %62, %59
  %64 = add i128 %63, %57
  %65 = lshr i128 %45, %58
  %66 = shl i128 %54, %61
  %67 = or i128 %66, %65
  %68 = icmp ult i128 %64, %57
  %extract.t25 = trunc i128 %64 to i64
  %extract30 = lshr i128 %64, 64
  %extract.t31 = trunc nuw i128 %extract30 to i64
  br label %86

69:                                               ; preds = %4
  %70 = icmp eq i32 %1, 128
  %71 = zext nneg i32 %2 to i128
  br i1 %70, label %72, label %75

72:                                               ; preds = %69
  %73 = add i128 %45, %71
  %74 = icmp ult i128 %73, %71
  %extract.t23 = trunc i128 %73 to i64
  %extract26 = lshr i128 %73, 64
  %extract.t27 = trunc nuw i128 %extract26 to i64
  br label %86

75:                                               ; preds = %69
  %76 = add nsw i32 %1, -128
  %77 = zext i32 %76 to i128
  %78 = lshr i128 %45, %77
  %79 = sub nsw i32 256, %1
  %80 = zext nneg i32 %79 to i128
  %81 = shl i128 %54, %80
  %82 = or i128 %81, %78
  %83 = add i128 %82, %71
  %84 = lshr i128 %54, %77
  %85 = icmp ult i128 %83, %71
  %extract.t24 = trunc i128 %83 to i64
  %extract28 = lshr i128 %83, 64
  %extract.t29 = trunc nuw i128 %extract28 to i64
  br label %86

86:                                               ; preds = %72, %75, %56
  %.sink22.off0 = phi i64 [ %extract.t23, %72 ], [ %extract.t24, %75 ], [ %extract.t25, %56 ]
  %.sink22.off64 = phi i64 [ %extract.t27, %72 ], [ %extract.t29, %75 ], [ %extract.t31, %56 ]
  %.sink = phi i1 [ %74, %72 ], [ %85, %75 ], [ %68, %56 ]
  %.sink12 = phi i128 [ %54, %72 ], [ %84, %75 ], [ %67, %56 ]
  %87 = zext i1 %.sink to i128
  %88 = add i128 %.sink12, %87
  store i64 %.sink22.off0, ptr %3, align 8, !tbaa !14
  %89 = getelementptr inbounds i8, ptr %3, i64 8
  store i64 %.sink22.off64, ptr %89, align 8, !tbaa !14
  %90 = trunc i128 %88 to i64
  %91 = getelementptr inbounds i8, ptr %3, i64 16
  store i64 %90, ptr %91, align 8, !tbaa !14
  %92 = lshr i128 %88, 64
  %93 = trunc nuw i128 %92 to i64
  %94 = getelementptr inbounds i8, ptr %3, i64 24
  store i64 %93, ptr %94, align 8, !tbaa !14
  ret void
}